target datalayout = "e-m:e-p270:32:32-p271:32:32-p272:64:64-i64:64-i128:128-f80:128-n8:16:32:64-S128"
target triple = "x86_64-pc-linux-gnu"

%struct.SurfaceDataRasInfo = type { %struct.SurfaceDataBounds, ptr, i32, i32, i32, i32, ptr, ptr, ptr, ptr, ptr, ptr, i32, %union.anon.0 }
%struct.SurfaceDataBounds = type { i32, i32, i32, i32 }
%union.anon.0 = type { ptr, [56 x i8] }

; Function Attrs: nounwind uwtable
define hidden void @Index12GrayToIndex8GrayScaleConvert(ptr noundef %0, ptr noundef %1, i32 noundef %2, i32 noundef %3, i32 noundef %4, i32 noundef %5, i32 noundef %6, i32 noundef %7, i32 noundef %8, ptr noundef %9, ptr noundef %10, ptr noundef %11, ptr noundef %12) #0 {
  %14 = alloca ptr, align 8
  %15 = alloca ptr, align 8
  %16 = alloca i32, align 4
  %17 = alloca i32, align 4
  %18 = alloca i32, align 4
  %19 = alloca i32, align 4
  %20 = alloca i32, align 4
  %21 = alloca i32, align 4
  %22 = alloca i32, align 4
  %23 = alloca ptr, align 8
  %24 = alloca ptr, align 8
  %25 = alloca ptr, align 8
  %26 = alloca ptr, align 8
  %27 = alloca ptr, align 8
  %28 = alloca ptr, align 8
  %29 = alloca ptr, align 8
  %30 = alloca ptr, align 8
  %31 = alloca i32, align 4
  %32 = alloca i32, align 4
  %33 = alloca i32, align 4
  %34 = alloca i32, align 4
  %35 = alloca i32, align 4
  %36 = alloca i32, align 4
  store ptr %0, ptr %14, align 8
  store ptr %1, ptr %15, align 8
  store i32 %2, ptr %16, align 4
  store i32 %3, ptr %17, align 4
  store i32 %4, ptr %18, align 4
  store i32 %5, ptr %19, align 4
  store i32 %6, ptr %20, align 4
  store i32 %7, ptr %21, align 4
  store i32 %8, ptr %22, align 4
  store ptr %9, ptr %23, align 8
  store ptr %10, ptr %24, align 8
  store ptr %11, ptr %25, align 8
  store ptr %12, ptr %26, align 8
  %37 = load ptr, ptr %23, align 8
  %38 = getelementptr inbounds %struct.SurfaceDataRasInfo, ptr %37, i32 0, i32 6
  %39 = load ptr, ptr %38, align 8
  store ptr %39, ptr %27, align 8
  br label %40

40:                                               ; preds = %13
  %41 = load ptr, ptr %15, align 8
  store ptr %41, ptr %30, align 8
  %42 = load ptr, ptr %23, align 8
  %43 = getelementptr inbounds %struct.SurfaceDataRasInfo, ptr %42, i32 0, i32 4
  %44 = load i32, ptr %43, align 8
  store i32 %44, ptr %31, align 4
  %45 = load ptr, ptr %24, align 8
  %46 = getelementptr inbounds %struct.SurfaceDataRasInfo, ptr %45, i32 0, i32 4
  %47 = load i32, ptr %46, align 8
  store i32 %47, ptr %32, align 4
  %48 = load ptr, ptr %24, align 8
  %49 = getelementptr inbounds %struct.SurfaceDataRasInfo, ptr %48, i32 0, i32 11
  %50 = load ptr, ptr %49, align 8
  store ptr %50, ptr %28, align 8
  %51 = load i32, ptr %16, align 4
  %52 = mul i32 %51, 1
  %53 = load i32, ptr %32, align 4
  %54 = sub i32 %53, %52
  store i32 %54, ptr %32, align 4
  br label %55

55:                                               ; preds = %117, %40
  %56 = load i32, ptr %16, align 4
  store i32 %56, ptr %33, align 4
  %57 = load i32, ptr %18, align 4
  store i32 %57, ptr %34, align 4
  %58 = load ptr, ptr %14, align 8
  %59 = ptrtoint ptr %58 to i64
  %60 = load i32, ptr %19, align 4
  %61 = load i32, ptr %22, align 4
  %62 = ashr i32 %60, %61
  %63 = sext i32 %62 to i64
  %64 = load i32, ptr %31, align 4
  %65 = sext i32 %64 to i64
  %66 = mul nsw i64 %63, %65
  %67 = add nsw i64 %59, %66
  %68 = inttoptr i64 %67 to ptr
  store ptr %68, ptr %29, align 8
  br label %69

69:                                               ; preds = %103, %55
  %70 = load i32, ptr %34, align 4
  %71 = load i32, ptr %22, align 4
  %72 = ashr i32 %70, %71
  store i32 %72, ptr %35, align 4
  br label %73

73:                                               ; preds = %69
  %74 = load ptr, ptr %27, align 8
  %75 = load ptr, ptr %29, align 8
  %76 = load i32, ptr %35, align 4
  %77 = sext i32 %76 to i64
  %78 = getelementptr inbounds i16, ptr %75, i64 %77
  %79 = load i16, ptr %78, align 2
  %80 = zext i16 %79 to i32
  %81 = and i32 %80, 4095
  %82 = sext i32 %81 to i64
  %83 = getelementptr inbounds i32, ptr %74, i64 %82
  %84 = load i32, ptr %83, align 4
  %85 = trunc i32 %84 to i8
  %86 = zext i8 %85 to i32
  store i32 %86, ptr %36, align 4
  %87 = load ptr, ptr %28, align 8
  %88 = load i32, ptr %36, align 4
  %89 = sext i32 %88 to i64
  %90 = getelementptr inbounds i32, ptr %87, i64 %89
  %91 = load i32, ptr %90, align 4
  %92 = trunc i32 %91 to i8
  %93 = load ptr, ptr %30, align 8
  %94 = getelementptr inbounds i8, ptr %93, i64 0
  store i8 %92, ptr %94, align 1
  br label %95

95:                                               ; preds = %73
  %96 = load ptr, ptr %30, align 8
  %97 = ptrtoint ptr %96 to i64
  %98 = add nsw i64 %97, 1
  %99 = inttoptr i64 %98 to ptr
  store ptr %99, ptr %30, align 8
  %100 = load i32, ptr %20, align 4
  %101 = load i32, ptr %34, align 4
  %102 = add nsw i32 %101, %100
  store i32 %102, ptr %34, align 4
  br label %103

103:                                              ; preds = %95
  %104 = load i32, ptr %33, align 4
  %105 = add i32 %104, -1
  store i32 %105, ptr %33, align 4
  %106 = icmp ugt i32 %105, 0
  br i1 %106, label %69, label %107, !llvm.loop !34

107:                                              ; preds = %103
  %108 = load ptr, ptr %30, align 8
  %109 = ptrtoint ptr %108 to i64
  %110 = load i32, ptr %32, align 4
  %111 = sext i32 %110 to i64
  %112 = add nsw i64 %109, %111
  %113 = inttoptr i64 %112 to ptr
  store ptr %113, ptr %30, align 8
  %114 = load i32, ptr %21, align 4
  %115 = load i32, ptr %19, align 4
  %116 = add nsw i32 %115, %114
  store i32 %116, ptr %19, align 4
  br label %117

117:                                              ; preds = %107
  %118 = load i32, ptr %17, align 4
  %119 = add i32 %118, -1
  store i32 %119, ptr %17, align 4
  %120 = icmp ugt i32 %119, 0
  br i1 %120, label %55, label %121, !llvm.loop !35

121:                                              ; preds = %117
  br label %122

122:                                              ; preds = %121
  ret void
}