; Function Attrs: nofree norecurse nosync nounwind memory(readwrite, inaccessiblemem: none) uwtable
define hidden void @Index12GrayToIndex8GrayScaleConvert(ptr noundef %0, ptr noundef %1, i32 noundef %2, i32 noundef %3, i32 noundef %4, i32 noundef %5, i32 noundef %6, i32 noundef %7, i32 noundef %8, ptr nocapture noundef readonly %9, ptr nocapture noundef readonly %10, ptr nocapture readnone %11, ptr nocapture readnone %12) #0 {
  %14 = getelementptr inbounds i8, ptr %9, i64 40
  %15 = load ptr, ptr %14, align 8
  %16 = getelementptr inbounds i8, ptr %9, i64 32
  %17 = load i32, ptr %16, align 8
  %18 = getelementptr inbounds i8, ptr %10, i64 32
  %19 = load i32, ptr %18, align 8
  %20 = getelementptr inbounds i8, ptr %10, i64 80
  %21 = load ptr, ptr %20, align 8
  %22 = sub i32 %19, %2
  %23 = sext i32 %22 to i64
  %24 = ptrtoint ptr %0 to i64
  %25 = sext i32 %17 to i64
  br label %26

26:                                               ; preds = %51, %13
  %.032 = phi ptr [ %1, %13 ], [ %53, %51 ]
  %.029 = phi i32 [ %5, %13 ], [ %54, %51 ]
  %.0 = phi i32 [ %3, %13 ], [ %55, %51 ]
  %27 = ashr i32 %.029, %8
  %28 = sext i32 %27 to i64
  %29 = mul nsw i64 %28, %25
  %30 = add nsw i64 %29, %24
  %31 = inttoptr i64 %30 to ptr
  br label %32

32:                                               ; preds = %32, %26
  %.1 = phi ptr [ %.032, %26 ], [ %48, %32 ]
  %.031 = phi i32 [ %2, %26 ], [ %50, %32 ]
  %.030 = phi i32 [ %4, %26 ], [ %49, %32 ]
  %33 = ashr i32 %.030, %8
  %34 = sext i32 %33 to i64
  %35 = getelementptr inbounds i16, ptr %31, i64 %34
  %36 = load i16, ptr %35, align 2
  %37 = and i16 %36, 4095
  %38 = zext nneg i16 %37 to i64
  %39 = getelementptr inbounds i32, ptr %15, i64 %38
  %40 = load i32, ptr %39, align 4
  %41 = and i32 %40, 255
  %42 = zext nneg i32 %41 to i64
  %43 = getelementptr inbounds i32, ptr %21, i64 %42
  %44 = load i32, ptr %43, align 4
  %45 = trunc i32 %44 to i8
  store i8 %45, ptr %.1, align 1
  %46 = ptrtoint ptr %.1 to i64
  %47 = add nsw i64 %46, 1
  %48 = inttoptr i64 %47 to ptr
  %49 = add nsw i32 %.030, %6
  %50 = add i32 %.031, -1
  %.not = icmp eq i32 %50, 0
  br i1 %.not, label %51, label %32, !llvm.loop !32

51:                                               ; preds = %32
  %52 = add nsw i64 %47, %23
  %53 = inttoptr i64 %52 to ptr
  %54 = add nsw i32 %.029, %7
  %55 = add i32 %.0, -1
  %.not34 = icmp eq i32 %55, 0
  br i1 %.not34, label %56, label %26, !llvm.loop !33

56:                                               ; preds = %51
  ret void
}